target datalayout = "e-m:e-p270:32:32-p271:32:32-p272:64:64-i64:64-i128:128-f80:128-n8:16:32:64-S128"
target triple = "x86_64-unknown-linux-gnu"

%struct.QTailQLink = type { ptr, ptr }
%struct.BlockDriverState = type { i32, i8, i8, i8, i8, i8, ptr, ptr, ptr, %struct.anon.0, i8, [4096 x i8], [4096 x i8], [4096 x i8], [16 x i8], ptr, [4096 x i8], %struct.BlockLimits, i32, i32, i32, i32, [32 x i8], %union.anon, %union.anon.1, %union.anon.2, i32, [16 x %struct.anon.3], ptr, %struct.anon.4, ptr, ptr, %struct.anon.5, ptr, ptr, i32, ptr, i64, i64, %struct.QemuMutex, %struct.anon.6, %struct.Stat64, i32, i32, i32, i32, i32, i32, %struct.QemuMutex, %struct.anon.7, %struct.CoQueue, i8, i32, i8, %struct.CoMutex, ptr, ptr }
%struct.anon.0 = type { ptr }
%struct.BlockLimits = type { i32, i64, i32, i64, i32, i32, i32, i64, i32, i64, i64, i32, i8, i32, i32, i32, i32, i32, i32, i32 }
%union.anon = type { %struct.QTailQLink }
%union.anon.1 = type { %struct.QTailQLink }
%union.anon.2 = type { %struct.QTailQLink }
%struct.anon.3 = type { ptr }
%struct.anon.4 = type { ptr }
%struct.anon.5 = type { ptr }
%struct.anon.6 = type { ptr }
%struct.Stat64 = type { i64 }
%struct.QemuMutex = type { %union.pthread_mutex_t, i8 }
%union.pthread_mutex_t = type { %struct.__pthread_mutex_s }
%struct.__pthread_mutex_s = type { i32, i32, i32, i32, i32, i16, i16, %struct.__pthread_internal_list }
%struct.__pthread_internal_list = type { ptr, ptr }
%struct.anon.7 = type { ptr }
%struct.CoQueue = type { %struct.anon.8 }
%struct.anon.8 = type { ptr, ptr }
%struct.CoMutex = type { i32, ptr, %struct.anon.9, %struct.anon.9, i32, i32, ptr }
%struct.anon.9 = type { ptr }
%struct.BDRVReplicationState = type { i32, i32, ptr, ptr, ptr, ptr, ptr, ptr, ptr, i8, i8, i32 }
%struct.BdrvChild = type { ptr, ptr, ptr, i32, ptr, i64, i64, i8, i8, %struct.anon.12, %struct.anon.13 }
%struct.anon.12 = type { ptr, ptr }
%struct.anon.13 = type { ptr, ptr }
%struct.GraphLockableMainloop = type {}

@.str.4 = private unnamed_addr constant [28 x i8] c"../qemu/block/replication.c\00", align 1
@__func__.secondary_do_checkpoint = private unnamed_addr constant [24 x i8] c"secondary_do_checkpoint\00", align 1
@.str.26 = private unnamed_addr constant [38 x i8] c"Backup job was cancelled unexpectedly\00", align 1
@.str.27 = private unnamed_addr constant [26 x i8] c"Active disk %s is ejected\00", align 1
@.str.28 = private unnamed_addr constant [26 x i8] c"Hidden disk %s is ejected\00", align 1

; Function Attrs: nounwind sspstrong uwtable
define internal void @graph_lockable_auto_unlock_mainloop(ptr noundef %x) #0 {
entry:
  %x.addr = alloca ptr, align 8
  store ptr %x, ptr %x.addr, align 8
  call void @bdrv_graph_rdunlock_main_loop()
  ret void
}

; Function Attrs: nounwind sspstrong uwtable
define internal void @glib_autoptr_clear_GraphLockableMainloop(ptr noundef %_ptr) #0 {
entry:
  %_ptr.addr = alloca ptr, align 8
  store ptr %_ptr, ptr %_ptr.addr, align 8
  %0 = load ptr, ptr %_ptr.addr, align 8
  %tobool = icmp ne ptr %0, null
  br i1 %tobool, label %if.then, label %if.end

if.then:                                          ; preds = %entry
  %1 = load ptr, ptr %_ptr.addr, align 8
  call void @graph_lockable_auto_unlock_mainloop(ptr noundef %1)
  br label %if.end

if.end:                                           ; preds = %if.then, %entry
  ret void
}

; Function Attrs: nounwind sspstrong uwtable
define internal void @glib_autoptr_cleanup_GraphLockableMainloop(ptr noundef %_ptr) #0 {
entry:
  %_ptr.addr = alloca ptr, align 8
  store ptr %_ptr, ptr %_ptr.addr, align 8
  %0 = load ptr, ptr %_ptr.addr, align 8
  %1 = load ptr, ptr %0, align 8
  call void @glib_autoptr_clear_GraphLockableMainloop(ptr noundef %1)
  ret void
}

; Function Attrs: nounwind sspstrong uwtable
define internal ptr @graph_lockable_auto_lock_mainloop(ptr noundef %x) #0 {
entry:
  %x.addr = alloca ptr, align 8
  store ptr %x, ptr %x.addr, align 8
  call void @bdrv_graph_rdlock_main_loop()
  %0 = load ptr, ptr %x.addr, align 8
  ret ptr %0
}

; Function Attrs: nounwind sspstrong uwtable
define internal void @secondary_do_checkpoint(ptr noundef %bs, ptr noundef %errp) #0 {
entry:
  %bs.addr = alloca ptr, align 8
  %errp.addr = alloca ptr, align 8
  %s = alloca ptr, align 8
  %active_disk = alloca ptr, align 8
  %local_err = alloca ptr, align 8
  %ret = alloca i32, align 4
  %graph_lockable_auto4 = alloca ptr, align 8
  %.compoundliteral = alloca %struct.GraphLockableMainloop, align 1
  %cleanup.dest.slot = alloca i32, align 4
  store ptr %bs, ptr %bs.addr, align 8
  store ptr %errp, ptr %errp.addr, align 8
  %0 = load ptr, ptr %bs.addr, align 8
  %opaque = getelementptr inbounds %struct.BlockDriverState, ptr %0, i32 0, i32 7
  %1 = load ptr, ptr %opaque, align 8
  store ptr %1, ptr %s, align 8
  store ptr null, ptr %local_err, align 8
  %call = call ptr @graph_lockable_auto_lock_mainloop(ptr noundef %.compoundliteral)
  store ptr %call, ptr %graph_lockable_auto4, align 8
  %2 = load ptr, ptr %s, align 8
  %backup_job = getelementptr inbounds %struct.BDRVReplicationState, ptr %2, i32 0, i32 5
  %3 = load ptr, ptr %backup_job, align 8
  %tobool = icmp ne ptr %3, null
  br i1 %tobool, label %if.end, label %if.then

if.then:                                          ; preds = %entry
  %4 = load ptr, ptr %errp.addr, align 8
  call void (ptr, ptr, i32, ptr, ptr, ...) @error_setg_internal(ptr noundef %4, ptr noundef @.str.4, i32 noundef 321, ptr noundef @__func__.secondary_do_checkpoint, ptr noundef @.str.26)
  store i32 1, ptr %cleanup.dest.slot, align 4
  br label %cleanup

if.end:                                           ; preds = %entry
  %5 = load ptr, ptr %s, align 8
  %backup_job1 = getelementptr inbounds %struct.BDRVReplicationState, ptr %5, i32 0, i32 5
  %6 = load ptr, ptr %backup_job1, align 8
  call void @backup_do_checkpoint(ptr noundef %6, ptr noundef %local_err)
  %7 = load ptr, ptr %local_err, align 8
  %tobool2 = icmp ne ptr %7, null
  br i1 %tobool2, label %if.then3, label %if.end4

if.then3:                                         ; preds = %if.end
  %8 = load ptr, ptr %errp.addr, align 8
  %9 = load ptr, ptr %local_err, align 8
  call void @error_propagate(ptr noundef %8, ptr noundef %9)
  store i32 1, ptr %cleanup.dest.slot, align 4
  br label %cleanup

if.end4:                                          ; preds = %if.end
  %10 = load ptr, ptr %bs.addr, align 8
  %file = getelementptr inbounds %struct.BlockDriverState, ptr %10, i32 0, i32 31
  %11 = load ptr, ptr %file, align 8
  store ptr %11, ptr %active_disk, align 8
  %12 = load ptr, ptr %active_disk, align 8
  %bs5 = getelementptr inbounds %struct.BdrvChild, ptr %12, i32 0, i32 0
  %13 = load ptr, ptr %bs5, align 8
  %drv = getelementptr inbounds %struct.BlockDriverState, ptr %13, i32 0, i32 6
  %14 = load ptr, ptr %drv, align 8
  %tobool6 = icmp ne ptr %14, null
  br i1 %tobool6, label %if.end9, label %if.then7

if.then7:                                         ; preds = %if.end4
  %15 = load ptr, ptr %errp.addr, align 8
  %16 = load ptr, ptr %active_disk, align 8
  %bs8 = getelementptr inbounds %struct.BdrvChild, ptr %16, i32 0, i32 0
  %17 = load ptr, ptr %bs8, align 8
  %node_name = getelementptr inbounds %struct.BlockDriverState, ptr %17, i32 0, i32 22
  %arraydecay = getelementptr inbounds [32 x i8], ptr %node_name, i64 0, i64 0
  call void (ptr, ptr, i32, ptr, ptr, ...) @error_setg_internal(ptr noundef %15, ptr noundef @.str.4, i32 noundef 334, ptr noundef @__func__.secondary_do_checkpoint, ptr noundef @.str.27, ptr noundef %arraydecay)
  store i32 1, ptr %cleanup.dest.slot, align 4
  br label %cleanup

if.end9:                                          ; preds = %if.end4
  %18 = load ptr, ptr %active_disk, align 8
  %19 = load ptr, ptr %errp.addr, align 8
  %call10 = call i32 @bdrv_make_empty(ptr noundef %18, ptr noundef %19)
  store i32 %call10, ptr %ret, align 4
  %20 = load i32, ptr %ret, align 4
  %cmp = icmp slt i32 %20, 0
  br i1 %cmp, label %if.then11, label %if.end12

if.then11:                                        ; preds = %if.end9
  store i32 1, ptr %cleanup.dest.slot, align 4
  br label %cleanup

if.end12:                                         ; preds = %if.end9
  %21 = load ptr, ptr %s, align 8
  %hidden_disk = getelementptr inbounds %struct.BDRVReplicationState, ptr %21, i32 0, i32 3
  %22 = load ptr, ptr %hidden_disk, align 8
  %bs13 = getelementptr inbounds %struct.BdrvChild, ptr %22, i32 0, i32 0
  %23 = load ptr, ptr %bs13, align 8
  %drv14 = getelementptr inbounds %struct.BlockDriverState, ptr %23, i32 0, i32 6
  %24 = load ptr, ptr %drv14, align 8
  %tobool15 = icmp ne ptr %24, null
  br i1 %tobool15, label %if.end21, label %if.then16

if.then16:                                        ; preds = %if.end12
  %25 = load ptr, ptr %errp.addr, align 8
  %26 = load ptr, ptr %s, align 8
  %hidden_disk17 = getelementptr inbounds %struct.BDRVReplicationState, ptr %26, i32 0, i32 3
  %27 = load ptr, ptr %hidden_disk17, align 8
  %bs18 = getelementptr inbounds %struct.BdrvChild, ptr %27, i32 0, i32 0
  %28 = load ptr, ptr %bs18, align 8
  %node_name19 = getelementptr inbounds %struct.BlockDriverState, ptr %28, i32 0, i32 22
  %arraydecay20 = getelementptr inbounds [32 x i8], ptr %node_name19, i64 0, i64 0
  call void (ptr, ptr, i32, ptr, ptr, ...) @error_setg_internal(ptr noundef %25, ptr noundef @.str.4, i32 noundef 345, ptr noundef @__func__.secondary_do_checkpoint, ptr noundef @.str.28, ptr noundef %arraydecay20)
  store i32 1, ptr %cleanup.dest.slot, align 4
  br label %cleanup

if.end21:                                         ; preds = %if.end12
  %29 = load ptr, ptr %s, align 8
  %hidden_disk22 = getelementptr inbounds %struct.BDRVReplicationState, ptr %29, i32 0, i32 3
  %30 = load ptr, ptr %hidden_disk22, align 8
  %31 = load ptr, ptr %errp.addr, align 8
  %call23 = call i32 @bdrv_make_empty(ptr noundef %30, ptr noundef %31)
  store i32 %call23, ptr %ret, align 4
  %32 = load i32, ptr %ret, align 4
  %cmp24 = icmp slt i32 %32, 0
  br i1 %cmp24, label %if.then25, label %if.end26

if.then25:                                        ; preds = %if.end21
  store i32 1, ptr %cleanup.dest.slot, align 4
  br label %cleanup

if.end26:                                         ; preds = %if.end21
  store i32 0, ptr %cleanup.dest.slot, align 4
  br label %cleanup

cleanup:                                          ; preds = %if.end26, %if.then25, %if.then16, %if.then11, %if.then7, %if.then3, %if.then
  call void @glib_autoptr_cleanup_GraphLockableMainloop(ptr noundef %graph_lockable_auto4)
  %cleanup.dest = load i32, ptr %cleanup.dest.slot, align 4
  switch i32 %cleanup.dest, label %unreachable [
    i32 0, label %cleanup.cont
    i32 1, label %cleanup.cont
  ]

cleanup.cont:                                     ; preds = %cleanup, %cleanup
  ret void

unreachable:                                      ; preds = %cleanup
  unreachable
}