; Function Attrs: nounwind sspstrong uwtable
define internal fastcc void @secondary_do_checkpoint(ptr noundef readonly captures(none) %bs, ptr noundef %errp) unnamed_addr #0 {
entry:
  %local_err = alloca ptr, align 8
  %opaque = getelementptr inbounds nuw i8, ptr %bs, i64 24
  %0 = load ptr, ptr %opaque, align 8
  store ptr null, ptr %local_err, align 8
  tail call void @bdrv_graph_rdlock_main_loop() #8
  %backup_job = getelementptr inbounds nuw i8, ptr %0, i64 32
  %1 = load ptr, ptr %backup_job, align 8
  %tobool.not = icmp eq ptr %1, null
  br i1 %tobool.not, label %if.then, label %if.end

if.then:                                          ; preds = %entry
  tail call void (ptr, ptr, i32, ptr, ptr, ...) @error_setg_internal(ptr noundef %errp, ptr noundef nonnull @.str.4, i32 noundef 321, ptr noundef nonnull @__func__.secondary_do_checkpoint, ptr noundef nonnull @.str.26) #8
  br label %glib_autoptr_cleanup_GraphLockableMainloop.exit

if.end:                                           ; preds = %entry
  call void @backup_do_checkpoint(ptr noundef nonnull %1, ptr noundef nonnull %local_err) #8
  %2 = load ptr, ptr %local_err, align 8
  %tobool2.not = icmp eq ptr %2, null
  br i1 %tobool2.not, label %if.end4, label %if.then3

if.then3:                                         ; preds = %if.end
  call void @error_propagate(ptr noundef %errp, ptr noundef nonnull %2) #8
  br label %glib_autoptr_cleanup_GraphLockableMainloop.exit

if.end4:                                          ; preds = %if.end
  %file = getelementptr inbounds nuw i8, ptr %bs, i64 16840
  %3 = load ptr, ptr %file, align 8
  %4 = load ptr, ptr %3, align 8
  %drv = getelementptr inbounds nuw i8, ptr %4, i64 16
  %5 = load ptr, ptr %drv, align 8
  %tobool6.not = icmp eq ptr %5, null
  br i1 %tobool6.not, label %if.then7, label %if.end9

if.then7:                                         ; preds = %if.end4
  %node_name = getelementptr inbounds nuw i8, ptr %4, i64 16600
  call void (ptr, ptr, i32, ptr, ptr, ...) @error_setg_internal(ptr noundef %errp, ptr noundef nonnull @.str.4, i32 noundef 334, ptr noundef nonnull @__func__.secondary_do_checkpoint, ptr noundef nonnull @.str.27, ptr noundef nonnull %node_name) #8
  br label %glib_autoptr_cleanup_GraphLockableMainloop.exit

if.end9:                                          ; preds = %if.end4
  %call10 = call i32 @bdrv_make_empty(ptr noundef nonnull %3, ptr noundef %errp) #8
  %cmp = icmp slt i32 %call10, 0
  br i1 %cmp, label %glib_autoptr_cleanup_GraphLockableMainloop.exit, label %if.end12

if.end12:                                         ; preds = %if.end9
  %hidden_disk = getelementptr inbounds nuw i8, ptr %0, i64 16
  %6 = load ptr, ptr %hidden_disk, align 8
  %7 = load ptr, ptr %6, align 8
  %drv14 = getelementptr inbounds nuw i8, ptr %7, i64 16
  %8 = load ptr, ptr %drv14, align 8
  %tobool15.not = icmp eq ptr %8, null
  br i1 %tobool15.not, label %if.then16, label %if.end21

if.then16:                                        ; preds = %if.end12
  %node_name19 = getelementptr inbounds nuw i8, ptr %7, i64 16600
  call void (ptr, ptr, i32, ptr, ptr, ...) @error_setg_internal(ptr noundef %errp, ptr noundef nonnull @.str.4, i32 noundef 345, ptr noundef nonnull @__func__.secondary_do_checkpoint, ptr noundef nonnull @.str.28, ptr noundef nonnull %node_name19) #8
  br label %glib_autoptr_cleanup_GraphLockableMainloop.exit

if.end21:                                         ; preds = %if.end12
  %call23 = call i32 @bdrv_make_empty(ptr noundef nonnull %6, ptr noundef %errp) #8
  br label %glib_autoptr_cleanup_GraphLockableMainloop.exit

glib_autoptr_cleanup_GraphLockableMainloop.exit:  ; preds = %if.end21, %if.end9, %if.then16, %if.then7, %if.then3, %if.then
  call void @bdrv_graph_rdunlock_main_loop() #8
  ret void
}